; Function Attrs: mustprogress nofree norecurse nosync nounwind willreturn memory(read, inaccessiblemem: none) uwtable
define i32 @cli_bcapi_pdf_get_offset(ptr nocapture noundef readonly %0, i32 noundef %1) local_unnamed_addr #21 {
  %3 = getelementptr inbounds i8, ptr %0, i64 1056
  %4 = load i32, ptr %3, align 8
  %.not = icmp eq i32 %4, 0
  br i1 %.not, label %18, label %5

5:                                                ; preds = %2
  %6 = getelementptr inbounds i8, ptr %0, i64 1024
  %7 = load i32, ptr %6, align 8
  %.not7 = icmp ugt i32 %7, %1
  br i1 %.not7, label %8, label %18

8:                                                ; preds = %5
  %9 = getelementptr inbounds i8, ptr %0, i64 1052
  %10 = load i32, ptr %9, align 4
  %11 = getelementptr inbounds i8, ptr %0, i64 1032
  %12 = load ptr, ptr %11, align 8
  %13 = sext i32 %1 to i64
  %14 = getelementptr inbounds ptr, ptr %12, i64 %13
  %15 = load ptr, ptr %14, align 8
  %16 = load i32, ptr %15, align 8
  %17 = add i32 %16, %10
  br label %18

18:                                               ; preds = %2, %5, %8
  %.0 = phi i32 [ %17, %8 ], [ -1, %5 ], [ -1, %2 ]
  ret i32 %.0
}